Certificate:
    Data:
        Version: 3 (0x2)
        Serial Number: 4097 (0x1001)
        Signature Algorithm: sha256WithRSAEncryption
        Issuer: C=BD, ST=SYL, L=syl, O=perfectca, OU=perfectca, CN=ca/emailAddress=cca
        Validity
            Not Before: Mar 12 11:14:23 2020 GMT
            Not After : Mar 12 11:14:23 2021 GMT
        Subject: C=BD, ST=SYL, O=sp2.sust.com, OU=sp2.sust.com, CN=sp2.sust.com
        Subject Public Key Info:
            Public Key Algorithm: rsaEncryption
                RSA Public-Key: (2048 bit)
                Modulus:
                    00:b5:43:28:a2:ac:74:a9:0e:96:78:7b:5d:d5:97:
                    ac:32:a4:7c:8c:6d:2f:c6:ba:1f:e4:e3:93:03:14:
                    e9:22:37:7d:cc:e4:5a:60:2f:0a:76:0e:48:80:82:
                    6a:87:a5:42:93:c4:aa:d1:08:0c:c9:e6:5c:66:fe:
                    d4:18:2c:28:58:32:41:34:17:41:1f:70:e2:dd:a4:
                    92:db:84:43:e4:92:df:d9:f5:3e:5e:10:57:56:86:
                    2d:fe:d8:8a:b1:83:9a:21:54:a2:c9:4f:6b:57:50:
                    52:cd:43:c8:9c:05:1e:52:a9:89:f2:cb:f9:83:6b:
                    83:a2:a4:cb:9c:b5:72:ed:9b:4c:17:f1:67:49:70:
                    59:cd:de:55:ea:67:4c:68:43:e7:41:2e:02:5b:9a:
                    d2:b5:87:df:b5:91:93:ec:97:59:db:cb:f0:67:58:
                    e0:7d:fc:6e:6a:c9:23:83:1a:16:f0:f2:9d:db:2a:
                    f5:4d:cd:7c:4b:8a:f6:62:cf:a3:fa:88:22:67:ad:
                    db:a7:7a:27:6e:92:05:61:ce:90:3e:07:5e:3f:3c:
                    eb:2e:5f:7b:d0:92:6c:8b:df:93:ab:2b:7e:d9:5a:
                    0a:fe:02:88:72:f9:ee:20:f8:91:84:39:5a:25:0c:
                    a1:f9:c7:eb:2f:bc:c0:d9:40:63:b8:13:f1:0b:fe:
                    57:9d
                Exponent: 65537 (0x10001)
        X509v3 extensions:
            X509v3 Basic Constraints: 
                CA:FALSE
            Netscape Comment: 
                OpenSSL Generated Certificate
            X509v3 Subject Key Identifier: 
                6C:F6:D4:19:E2:23:FC:70:0F:1D:FC:48:BF:98:E0:79:BD:1A:76:41
            X509v3 Authority Key Identifier: 
                keyid:49:78:50:43:C1:FE:27:07:BD:33:BD:C3:2A:4F:F6:27:C7:BA:C9:AF

    Signature Algorithm: sha256WithRSAEncryption
         27:a0:ae:7d:04:fb:c0:60:47:c4:d0:0d:0a:56:55:2c:e8:9a:
         e1:6e:97:d3:d2:dc:51:ef:2d:c0:58:f4:d5:df:f8:72:df:6e:
         e6:b9:14:f8:84:f9:d9:2e:2e:a9:75:0d:12:75:5a:0d:f5:3e:
         88:8b:af:52:1f:71:17:73:5b:2c:64:c5:e7:09:5d:92:bd:ef:
         21:70:a7:69:9f:ba:71:29:d2:27:30:7f:70:4b:33:06:9e:05:
         12:90:37:8f:4e:35:77:49:bc:49:b2:40:89:52:9e:94:19:f3:
         c3:4a:03:e7:45:71:8a:84:88:d2:2b:8a:85:ad:b9:ab:43:1c:
         3b:ee:77:db:b0:8c:f0:ce:9b:72:3a:a5:05:0b:e4:68:ec:0d:
         81:d2:a7:a2:ff:e9:aa:6d:10:70:cf:c1:14:18:69:92:6f:39:
         4d:47:a2:65:71:ab:75:e7:c6:4c:3c:d9:61:83:c8:e1:a2:9b:
         f7:02:12:ed:55:44:27:8d:9a:41:6b:24:08:10:8a:a3:fb:f8:
         99:f4:73:72:d8:50:3a:54:7e:ad:86:a8:2c:a3:38:23:a2:64:
         d1:0b:1e:dd:bf:13:48:b6:47:d4:74:b9:21:8b:bd:46:51:f3:
         4e:e9:51:1e:c3:09:ab:52:fa:6e:bf:70:55:77:76:9a:3f:16:
         55:a5:6b:0d:c9:38:e8:09:9e:dd:50:2d:56:e4:a9:f7:25:b7:
         ac:16:0b:ba:3d:0f:af:07:69:3d:5a:21:4b:9b:83:5e:c4:7a:
         00:9f:7f:b9:3a:52:ea:4d:37:51:04:d3:17:00:e0:81:70:fe:
         b8:7b:f3:64:30:ef:24:11:88:0f:cd:a1:fa:9b:d1:7a:99:b1:
         d9:c0:6f:38:d0:d3:7f:dd:06:58:01:a9:6e:95:fd:b8:22:ca:
         95:c5:e3:f3:d5:a8:c1:df:b2:94:d5:e7:9a:23:82:b9:ad:88:
         be:3c:59:ff:ce:0c:ff:4d:f3:a5:1a:e7:d2:76:e3:89:5b:79:
         d9:c6:e1:ae:92:38:2c:11:61:46:60:19:bc:dc:59:2b:49:d7:
         54:29:c7:24:a7:ca:09:0d:78:ae:8b:27:58:71:92:38:93:ec:
         83:f2:74:65:b4:ed:9c:db:9e:34:f4:e1:c8:ff:e3:fb:2f:e8:
         08:e8:c5:e4:69:8b:04:c1:f9:0e:0a:a2:d3:7c:b5:94:73:6c:
         48:d8:d4:67:96:05:19:8c:72:f5:ee:6e:be:d5:12:98:fb:94:
         9a:0a:13:d7:56:96:f0:26:f5:ba:8d:c4:94:43:7a:df:26:b1:
         62:2c:a2:f5:ca:16:27:b7:97:3d:ef:f3:af:9a:ee:43:1e:0b:
         85:2e:44:e1:14:8f:5d:dd
-----BEGIN CERTIFICATE-----
MIIEyTCCArGgAwIBAgICEAEwDQYJKoZIhvcNAQELBQAwcjELMAkGA1UEBhMCQkQx
DDAKBgNVBAgMA1NZTDEMMAoGA1UEBwwDc3lsMRIwEAYDVQQKDAlwZXJmZWN0Y2Ex
EjAQBgNVBAsMCXBlcmZlY3RjYTELMAkGA1UEAwwCY2ExEjAQBgkqhkiG9w0BCQEW
A2NjYTAeFw0yMDAzMTIxMTE0MjNaFw0yMTAzMTIxMTE0MjNaMGAxCzAJBgNVBAYT
AkJEMQwwCgYDVQQIDANTWUwxFTATBgNVBAoMDHNwMi5zdXN0LmNvbTEVMBMGA1UE
CwwMc3AyLnN1c3QuY29tMRUwEwYDVQQDDAxzcDIuc3VzdC5jb20wggEiMA0GCSqG
SIb3DQEBAQUAA4IBDwAwggEKAoIBAQC1QyiirHSpDpZ4e13Vl6wypHyMbS/Guh/k
45MDFOkiN33M5FpgLwp2DkiAgmqHpUKTxKrRCAzJ5lxm/tQYLChYMkE0F0EfcOLd
pJLbhEPkkt/Z9T5eEFdWhi3+2Iqxg5ohVKLJT2tXUFLNQ8icBR5SqYnyy/mDa4Oi
pMuctXLtm0wX8WdJcFnN3lXqZ0xoQ+dBLgJbmtK1h9+1kZPsl1nby/BnWOB9/G5q
ySODGhbw8p3bKvVNzXxLivZiz6P6iCJnrduneidukgVhzpA+B14/POsuX3vQkmyL
35OrK37ZWgr+Aohy+e4g+JGEOVolDKH5x+svvMDZQGO4E/EL/ledAgMBAAGjezB5
MAkGA1UdEwQCMAAwLAYJYIZIAYb4QgENBB8WHU9wZW5TU0wgR2VuZXJhdGVkIENl
cnRpZmljYXRlMB0GA1UdDgQWBBRs9tQZ4iP8cA8d/Ei/mOB5vRp2QTAfBgNVHSME
GDAWgBRJeFBDwf4nB70zvcMqT/Ynx7rJrzANBgkqhkiG9w0BAQsFAAOCAgEAJ6Cu
fQT7wGBHxNANClZVLOia4W6X09LcUe8twFj01d/4ct9u5rkU+IT52S4uqXUNEnVa
DfU+iIuvUh9xF3NbLGTF5wldkr3vIXCnaZ+6cSnSJzB/cEszBp4FEpA3j041d0m8
SbJAiVKelBnzw0oD50VxioSI0iuKha25q0McO+5327CM8M6bcjqlBQvkaOwNgdKn
ov/pqm0QcM/BFBhpkm85TUeiZXGrdefGTDzZYYPI4aKb9wIS7VVEJ42aQWskCBCK
o/v4mfRzcthQOlR+rYaoLKM4I6Jk0Qse3b8TSLZH1HS5IYu9RlHzTulRHsMJq1L6
br9wVXd2mj8WVaVrDck46Ame3VAtVuSp9yW3rBYLuj0PrwdpPVohS5uDXsR6AJ9/
uTpS6k03UQTTFwDggXD+uHvzZDDvJBGID82h+pvRepmx2cBvONDTf90GWAGpbpX9
uCLKlcXj89Wowd+ylNXnmiOCua2IvjxZ/84M/03zpRrn0nbjiVt52cbhrpI4LBFh
RmAZvNxZK0nXVCnHJKfKCQ14rosnWHGSOJPsg/J0ZbTtnNueNPThyP/j+y/oCOjF
5GmLBMH5Dgqi03y1lHNsSNjUZ5YFGYxy9e5uvtUSmPuUmgoT11aW8Cb1uo3ElEN6
3yaxYiyi9coWJ7eXPe/zr5ruQx4LhS5E4RSPXd0=
-----END CERTIFICATE-----
