Certificate:
    Data:
        Version: 3 (0x2)
        Serial Number: 4098 (0x1002)
        Signature Algorithm: sha256WithRSAEncryption
        Issuer: C=BD, ST=SYL, L=syl, O=perfectca, OU=perfectca, CN=ca/emailAddress=cca
        Validity
            Not Before: Mar 13 10:27:14 2020 GMT
            Not After : Mar 13 10:27:14 2021 GMT
        Subject: C=BD, ST=SYL, O=idp.sust.com, OU=idp.sust.com, CN=idp
        Subject Public Key Info:
            Public Key Algorithm: rsaEncryption
                RSA Public-Key: (2048 bit)
                Modulus:
                    00:e1:02:90:d2:52:3d:96:65:06:ab:43:a3:1c:eb:
                    12:d1:32:31:6b:bf:91:af:18:71:46:67:18:b9:69:
                    31:fe:d4:51:c1:8f:8c:02:c7:18:64:5f:b2:46:4f:
                    5c:28:01:ca:30:2b:61:98:50:7e:57:ba:fb:45:64:
                    d3:c9:cb:b8:f6:75:9c:e1:a9:a0:15:40:84:44:a7:
                    5a:7e:a3:cd:40:19:a5:39:c5:a1:ea:c5:9d:ad:0c:
                    d5:f6:eb:aa:26:db:d9:03:76:d7:21:67:ea:f1:20:
                    44:9a:be:a6:e2:4a:c6:ca:55:65:03:a0:0e:48:09:
                    61:f4:2d:37:55:61:a6:79:53:b8:2b:f3:58:e0:04:
                    d2:4b:61:4a:de:9f:0d:a1:17:ef:bc:0a:85:cd:67:
                    10:88:44:1d:8c:7b:1d:dd:6a:f0:0a:fc:b5:7d:ec:
                    05:4b:5d:08:80:26:f2:07:6a:77:09:6b:de:0b:79:
                    14:f5:07:7f:bc:1e:3a:95:33:dc:16:e3:dc:d8:6d:
                    ac:f4:af:08:3d:01:67:77:81:07:53:df:35:1c:c2:
                    ec:00:57:d4:3a:dc:89:66:94:86:e8:9e:2d:b1:42:
                    c3:de:d8:ca:20:58:2d:16:15:ac:c4:b9:71:c9:2c:
                    f1:25:f6:94:46:ef:40:ff:4f:51:d4:13:15:fe:61:
                    f2:77
                Exponent: 65537 (0x10001)
        X509v3 extensions:
            X509v3 Basic Constraints: 
                CA:FALSE
            Netscape Comment: 
                OpenSSL Generated Certificate
            X509v3 Subject Key Identifier: 
                53:30:01:E1:17:38:15:2C:F2:65:81:CE:3B:4B:2A:A3:9E:CE:9B:32
            X509v3 Authority Key Identifier: 
                keyid:49:78:50:43:C1:FE:27:07:BD:33:BD:C3:2A:4F:F6:27:C7:BA:C9:AF

    Signature Algorithm: sha256WithRSAEncryption
         5b:d4:93:8e:cf:d2:8a:b8:d7:1f:6e:49:b6:c7:99:2c:d6:f4:
         81:85:9a:98:a9:2e:d3:6d:33:5a:b9:5b:3d:84:13:44:c7:1a:
         6c:18:20:e2:b2:9d:6e:a8:f1:91:45:08:b4:96:aa:0d:80:bc:
         63:0f:5c:cf:54:91:4b:a8:c6:06:63:40:d1:12:45:19:a9:74:
         7b:13:24:ad:73:d3:74:12:29:cb:a3:ce:31:35:a4:6b:88:da:
         de:bf:1f:c6:d5:5f:b0:08:96:4b:07:f4:00:7c:f0:ca:ac:2f:
         99:9d:49:9a:4b:43:3d:b9:45:1f:29:ea:37:b0:69:72:dd:0c:
         88:1b:09:05:8b:bb:fb:5d:f3:eb:37:43:c2:9d:39:f9:f9:d0:
         8c:d3:04:5f:bd:bb:a4:6b:1d:22:c9:2e:21:bf:37:6d:27:b8:
         8c:a4:3a:7f:0e:74:2e:cc:9e:29:ba:63:93:d3:af:91:15:9a:
         b2:66:f1:81:39:e7:67:cd:81:4b:e2:ca:14:13:58:c0:3f:3b:
         1a:67:3e:43:d8:59:28:6b:9e:ff:4f:c5:ec:d4:3a:31:6a:46:
         d1:02:de:1f:c4:73:88:aa:71:61:17:91:f2:f1:60:60:b9:a8:
         38:da:4d:bf:78:8e:b2:59:eb:cf:8d:3b:bd:48:3e:51:9b:b7:
         62:50:d0:59:e6:ef:48:65:a7:00:8d:38:95:ad:76:93:22:fd:
         4b:4a:3e:dc:c3:af:2e:06:6d:1b:51:4c:a7:61:18:8f:12:66:
         1c:a9:6e:a2:2b:2a:10:4d:67:12:67:47:f2:3d:bd:f6:b6:65:
         14:67:fd:79:fe:f8:35:e8:a1:a4:d1:31:71:a5:90:ca:62:e8:
         89:c7:7a:97:6a:18:79:10:15:81:79:b5:ca:b4:30:92:dd:57:
         f5:b1:a1:68:52:6e:4b:17:40:ee:a7:23:c3:02:11:ff:20:80:
         57:31:41:45:a8:cd:11:81:30:83:44:00:43:69:dd:b7:5e:5d:
         7a:a0:a5:4a:e0:d0:10:da:f6:23:1d:0c:ed:51:7b:46:0e:ea:
         bb:64:15:f8:02:3c:47:eb:b1:da:54:c8:4f:28:5a:68:15:5c:
         d9:93:00:94:85:40:57:44:39:f5:9b:e5:a3:eb:8c:c2:9a:00:
         f9:2c:68:5f:10:8b:e9:4f:90:3d:da:93:b4:07:e8:8d:36:b3:
         fb:1c:7d:6a:b1:20:04:30:0a:62:b0:19:2b:43:45:8e:00:ec:
         4c:c4:6f:f9:71:b2:23:30:c3:97:e6:b7:9d:f0:8e:da:7e:f0:
         40:b3:03:42:b5:75:33:84:5e:84:5b:96:7d:86:85:04:8d:4f:
         64:b3:d5:61:f1:71:4b:94
-----BEGIN CERTIFICATE-----
MIIEwDCCAqigAwIBAgICEAIwDQYJKoZIhvcNAQELBQAwcjELMAkGA1UEBhMCQkQx
DDAKBgNVBAgMA1NZTDEMMAoGA1UEBwwDc3lsMRIwEAYDVQQKDAlwZXJmZWN0Y2Ex
EjAQBgNVBAsMCXBlcmZlY3RjYTELMAkGA1UEAwwCY2ExEjAQBgkqhkiG9w0BCQEW
A2NjYTAeFw0yMDAzMTMxMDI3MTRaFw0yMTAzMTMxMDI3MTRaMFcxCzAJBgNVBAYT
AkJEMQwwCgYDVQQIDANTWUwxFTATBgNVBAoMDGlkcC5zdXN0LmNvbTEVMBMGA1UE
CwwMaWRwLnN1c3QuY29tMQwwCgYDVQQDDANpZHAwggEiMA0GCSqGSIb3DQEBAQUA
A4IBDwAwggEKAoIBAQDhApDSUj2WZQarQ6Mc6xLRMjFrv5GvGHFGZxi5aTH+1FHB
j4wCxxhkX7JGT1woAcowK2GYUH5XuvtFZNPJy7j2dZzhqaAVQIREp1p+o81AGaU5
xaHqxZ2tDNX266om29kDdtchZ+rxIESavqbiSsbKVWUDoA5ICWH0LTdVYaZ5U7gr
81jgBNJLYUrenw2hF++8CoXNZxCIRB2Mex3davAK/LV97AVLXQiAJvIHancJa94L
eRT1B3+8HjqVM9wW49zYbaz0rwg9AWd3gQdT3zUcwuwAV9Q63IlmlIboni2xQsPe
2MogWC0WFazEuXHJLPEl9pRG70D/T1HUExX+YfJ3AgMBAAGjezB5MAkGA1UdEwQC
MAAwLAYJYIZIAYb4QgENBB8WHU9wZW5TU0wgR2VuZXJhdGVkIENlcnRpZmljYXRl
MB0GA1UdDgQWBBRTMAHhFzgVLPJlgc47Syqjns6bMjAfBgNVHSMEGDAWgBRJeFBD
wf4nB70zvcMqT/Ynx7rJrzANBgkqhkiG9w0BAQsFAAOCAgEAW9STjs/SirjXH25J
tseZLNb0gYWamKku020zWrlbPYQTRMcabBgg4rKdbqjxkUUItJaqDYC8Yw9cz1SR
S6jGBmNA0RJFGal0exMkrXPTdBIpy6POMTWka4ja3r8fxtVfsAiWSwf0AHzwyqwv
mZ1JmktDPblFHynqN7Bpct0MiBsJBYu7+13z6zdDwp05+fnQjNMEX727pGsdIsku
Ib83bSe4jKQ6fw50LsyeKbpjk9OvkRWasmbxgTnnZ82BS+LKFBNYwD87Gmc+Q9hZ
KGue/0/F7NQ6MWpG0QLeH8RziKpxYReR8vFgYLmoONpNv3iOslnrz407vUg+UZu3
YlDQWebvSGWnAI04la12kyL9S0o+3MOvLgZtG1FMp2EYjxJmHKluoisqEE1nEmdH
8j299rZlFGf9ef74NeihpNExcaWQymLoicd6l2oYeRAVgXm1yrQwkt1X9bGhaFJu
SxdA7qcjwwIR/yCAVzFBRajNEYEwg0QAQ2ndt15deqClSuDQENr2Ix0M7VF7Rg7q
u2QV+AI8R+ux2lTITyhaaBVc2ZMAlIVAV0Q59Zvlo+uMwpoA+SxoXxCL6U+QPdqT
tAfojTaz+xx9arEgBDAKYrAZK0NFjgDsTMRv+XGyIzDDl+a3nfCO2n7wQLMDQrV1
M4RehFuWfYaFBI1PZLPVYfFxS5Q=
-----END CERTIFICATE-----
